; Function Attrs: mustprogress nounwind uwtable
define internal void @_ZN4leanL34finalize_get_stream_current_stdoutEPv(ptr noundef %0) #10 personality ptr @__gxx_personality_v0 {
  %2 = icmp eq ptr %0, null
  br i1 %2, label %17, label %3

3:                                                ; preds = %1
  %4 = load ptr, ptr %0, align 8, !tbaa !42
  %5 = ptrtoint ptr %4 to i64
  %6 = and i64 %5, 1
  %.not.i.i = icmp eq i64 %6, 0
  br i1 %.not.i.i, label %7, label %_ZN4lean10object_refD2Ev.exit

7:                                                ; preds = %3
  %8 = load i32, ptr %4, align 4, !tbaa !7
  %9 = icmp sgt i32 %8, 1
  br i1 %9, label %10, label %12, !prof !10

10:                                               ; preds = %7
  %11 = add nsw i32 %8, -1
  store i32 %11, ptr %4, align 4, !tbaa !7
  br label %_ZN4lean10object_refD2Ev.exit

12:                                               ; preds = %7
  %.not.i.i.i = icmp eq i32 %8, 0
  br i1 %.not.i.i.i, label %_ZN4lean10object_refD2Ev.exit, label %13

13:                                               ; preds = %12
  invoke void @lean_dec_ref_cold(ptr noundef nonnull %4)
          to label %_ZN4lean10object_refD2Ev.exit unwind label %14

14:                                               ; preds = %13
  %15 = landingpad { ptr, i32 }
          catch ptr null
  %16 = extractvalue { ptr, i32 } %15, 0
  tail call void @__clang_call_terminate(ptr %16) #32
  unreachable

_ZN4lean10object_refD2Ev.exit:                    ; preds = %3, %10, %12, %13
  tail call void @_ZdlPvm(ptr noundef nonnull %0, i64 noundef 8) #31
  br label %17

17:                                               ; preds = %_ZN4lean10object_refD2Ev.exit, %1
  %18 = tail call align 8 ptr @llvm.threadlocal.address.p0(ptr align 8 @_ZN4leanL32get_stream_current_stdout_tlocalE)
  store ptr null, ptr %18, align 8, !tbaa !40
  ret void
}